target datalayout = "e-m:e-p270:32:32-p271:32:32-p272:64:64-i64:64-i128:128-f80:128-n8:16:32:64-S128"
target triple = "x86_64-pc-linux-gnu"

%"class.duckdb::ScalarFunction" = type { %"class.duckdb::BaseScalarFunction.base", %"class.std::function", ptr, ptr, ptr, ptr, ptr, ptr, ptr, ptr, ptr, %"class.duckdb::shared_ptr.3" }
%"class.duckdb::BaseScalarFunction.base" = type <{ %"class.duckdb::SimpleFunction", %"struct.duckdb::LogicalType", i8, i8, i8, i8 }>
%"class.duckdb::SimpleFunction" = type { %"class.duckdb::Function", %"class.duckdb::vector", %"class.duckdb::vector", %"struct.duckdb::LogicalType" }
%"class.duckdb::Function" = type { ptr, %"class.std::__cxx11::basic_string", %"class.std::__cxx11::basic_string" }
%"class.std::__cxx11::basic_string" = type { %"struct.std::__cxx11::basic_string<char>::_Alloc_hider", i64, %union.anon }
%"struct.std::__cxx11::basic_string<char>::_Alloc_hider" = type { ptr }
%union.anon = type { i64, [8 x i8] }
%"class.duckdb::vector" = type { %"class.std::vector" }
%"class.std::vector" = type { %"struct.std::_Vector_base" }
%"struct.std::_Vector_base" = type { %"struct.std::_Vector_base<duckdb::LogicalType, std::allocator<duckdb::LogicalType>>::_Vector_impl" }
%"struct.std::_Vector_base<duckdb::LogicalType, std::allocator<duckdb::LogicalType>>::_Vector_impl" = type { %"struct.std::_Vector_base<duckdb::LogicalType, std::allocator<duckdb::LogicalType>>::_Vector_impl_data" }
%"struct.std::_Vector_base<duckdb::LogicalType, std::allocator<duckdb::LogicalType>>::_Vector_impl_data" = type { ptr, ptr, ptr }
%"struct.duckdb::LogicalType" = type { i8, i8, %"class.duckdb::shared_ptr" }
%"class.duckdb::shared_ptr" = type { %"class.std::shared_ptr" }
%"class.std::shared_ptr" = type { %"class.std::__shared_ptr" }
%"class.std::__shared_ptr" = type { ptr, %"class.std::__shared_count" }
%"class.std::__shared_count" = type { ptr }
%"class.std::function" = type { %"class.std::_Function_base", ptr }
%"class.std::_Function_base" = type { %"union.std::_Any_data", ptr }
%"union.std::_Any_data" = type { %"union.std::_Nocopy_types" }
%"union.std::_Nocopy_types" = type { { i64, i64 } }
%"class.duckdb::shared_ptr.3" = type { %"class.std::shared_ptr.4" }
%"class.std::shared_ptr.4" = type { %"class.std::__shared_ptr.5" }
%"class.std::__shared_ptr.5" = type { ptr, %"class.std::__shared_count" }
%"struct.duckdb::ExpressionState" = type { ptr, ptr, ptr, %"class.duckdb::vector.9", %"class.duckdb::vector", %"class.duckdb::DataChunk", %"class.duckdb::vector.27" }
%"class.duckdb::vector.9" = type { %"class.std::vector.10" }
%"class.std::vector.10" = type { %"struct.std::_Vector_base.11" }
%"struct.std::_Vector_base.11" = type { %"struct.std::_Vector_base<duckdb::unique_ptr<duckdb::ExpressionState>, std::allocator<duckdb::unique_ptr<duckdb::ExpressionState>>>::_Vector_impl" }
%"struct.std::_Vector_base<duckdb::unique_ptr<duckdb::ExpressionState>, std::allocator<duckdb::unique_ptr<duckdb::ExpressionState>>>::_Vector_impl" = type { %"struct.std::_Vector_base<duckdb::unique_ptr<duckdb::ExpressionState>, std::allocator<duckdb::unique_ptr<duckdb::ExpressionState>>>::_Vector_impl_data" }
%"struct.std::_Vector_base<duckdb::unique_ptr<duckdb::ExpressionState>, std::allocator<duckdb::unique_ptr<duckdb::ExpressionState>>>::_Vector_impl_data" = type { ptr, ptr, ptr }
%"class.duckdb::DataChunk" = type { %"class.duckdb::vector.15", i64, i64, %"class.duckdb::vector.21" }
%"class.duckdb::vector.15" = type { %"class.std::vector.16" }
%"class.std::vector.16" = type { %"struct.std::_Vector_base.17" }
%"struct.std::_Vector_base.17" = type { %"struct.std::_Vector_base<duckdb::Vector, std::allocator<duckdb::Vector>>::_Vector_impl" }
%"struct.std::_Vector_base<duckdb::Vector, std::allocator<duckdb::Vector>>::_Vector_impl" = type { %"struct.std::_Vector_base<duckdb::Vector, std::allocator<duckdb::Vector>>::_Vector_impl_data" }
%"struct.std::_Vector_base<duckdb::Vector, std::allocator<duckdb::Vector>>::_Vector_impl_data" = type { ptr, ptr, ptr }
%"class.duckdb::vector.21" = type { %"class.std::vector.22" }
%"class.std::vector.22" = type { %"struct.std::_Vector_base.23" }
%"struct.std::_Vector_base.23" = type { %"struct.std::_Vector_base<duckdb::VectorCache, std::allocator<duckdb::VectorCache>>::_Vector_impl" }
%"struct.std::_Vector_base<duckdb::VectorCache, std::allocator<duckdb::VectorCache>>::_Vector_impl" = type { %"struct.std::_Vector_base<duckdb::VectorCache, std::allocator<duckdb::VectorCache>>::_Vector_impl_data" }
%"struct.std::_Vector_base<duckdb::VectorCache, std::allocator<duckdb::VectorCache>>::_Vector_impl_data" = type { ptr, ptr, ptr }
%"class.duckdb::vector.27" = type { %"class.std::vector.28" }
%"class.std::vector.28" = type { %"struct.std::_Bvector_base" }
%"struct.std::_Bvector_base" = type { %"struct.std::_Bvector_base<std::allocator<bool>>::_Bvector_impl" }
%"struct.std::_Bvector_base<std::allocator<bool>>::_Bvector_impl" = type { %"struct.std::_Bvector_base<std::allocator<bool>>::_Bvector_impl_data" }
%"struct.std::_Bvector_base<std::allocator<bool>>::_Bvector_impl_data" = type { %"struct.std::_Bit_iterator", %"struct.std::_Bit_iterator", ptr }
%"struct.std::_Bit_iterator" = type { %"struct.std::_Bit_iterator_base.base", [4 x i8] }
%"struct.std::_Bit_iterator_base.base" = type <{ ptr, i32 }>
%"class.duckdb::BoundFunctionExpression" = type <{ %"class.duckdb::Expression", %"class.duckdb::ScalarFunction", %"class.duckdb::vector.41", %"class.duckdb::unique_ptr", i8, [7 x i8] }>
%"class.duckdb::Expression" = type { %"class.duckdb::BaseExpression", %"struct.duckdb::LogicalType", %"class.duckdb::unique_ptr.32" }
%"class.duckdb::BaseExpression" = type { ptr, i8, i8, %"class.std::__cxx11::basic_string", %"class.duckdb::optional_idx" }
%"class.duckdb::optional_idx" = type { i64 }
%"class.duckdb::unique_ptr.32" = type { %"class.std::unique_ptr.33" }
%"class.std::unique_ptr.33" = type { %"struct.std::__uniq_ptr_data.34" }
%"struct.std::__uniq_ptr_data.34" = type { %"class.std::__uniq_ptr_impl.35" }
%"class.std::__uniq_ptr_impl.35" = type { %"class.std::tuple.36" }
%"class.std::tuple.36" = type { %"struct.std::_Tuple_impl.37" }
%"struct.std::_Tuple_impl.37" = type { %"struct.std::_Head_base.40" }
%"struct.std::_Head_base.40" = type { ptr }
%"class.duckdb::vector.41" = type { %"class.std::vector.42" }
%"class.std::vector.42" = type { %"struct.std::_Vector_base.43" }
%"struct.std::_Vector_base.43" = type { %"struct.std::_Vector_base<duckdb::unique_ptr<duckdb::Expression>, std::allocator<duckdb::unique_ptr<duckdb::Expression>>>::_Vector_impl" }
%"struct.std::_Vector_base<duckdb::unique_ptr<duckdb::Expression>, std::allocator<duckdb::unique_ptr<duckdb::Expression>>>::_Vector_impl" = type { %"struct.std::_Vector_base<duckdb::unique_ptr<duckdb::Expression>, std::allocator<duckdb::unique_ptr<duckdb::Expression>>>::_Vector_impl_data" }
%"struct.std::_Vector_base<duckdb::unique_ptr<duckdb::Expression>, std::allocator<duckdb::unique_ptr<duckdb::Expression>>>::_Vector_impl_data" = type { ptr, ptr, ptr }
%"class.duckdb::unique_ptr" = type { %"class.std::unique_ptr" }
%"class.std::unique_ptr" = type { %"struct.std::__uniq_ptr_data" }
%"struct.std::__uniq_ptr_data" = type { %"class.std::__uniq_ptr_impl" }
%"class.std::__uniq_ptr_impl" = type { %"class.std::tuple" }
%"class.std::tuple" = type { %"struct.std::_Tuple_impl" }
%"struct.std::_Tuple_impl" = type { %"struct.std::_Head_base.8" }
%"struct.std::_Head_base.8" = type { ptr }
%"struct.duckdb::UnionExtractBindData" = type { %"struct.duckdb::FunctionData", %"class.std::__cxx11::basic_string", i64, %"struct.duckdb::LogicalType" }
%"struct.duckdb::FunctionData" = type { ptr }

; Function Attrs: mustprogress nounwind uwtable
define linkonce_odr void @_ZN6duckdb16DynamicCastCheckINS_20UnionExtractBindDataENS_12FunctionDataEEEvPKT0_(ptr noundef %0) #4 comdat {
  %2 = alloca ptr, align 8
  store ptr %0, ptr %2, align 8, !tbaa !166
  ret void
}

; Function Attrs: inlinehint mustprogress nounwind uwtable
define linkonce_odr noundef i64 @_ZNK6duckdb9DataChunk4sizeEv(ptr noundef nonnull align 8 dereferenceable(64) %0) #9 comdat align 2 {
  %2 = alloca ptr, align 8
  store ptr %0, ptr %2, align 8, !tbaa !15
  %3 = load ptr, ptr %2, align 8
  %4 = getelementptr inbounds nuw %"class.duckdb::DataChunk", ptr %3, i32 0, i32 1
  %5 = load i64, ptr %4, align 8, !tbaa !170
  ret i64 %5
}

; Function Attrs: mustprogress uwtable
define linkonce_odr noundef nonnull align 8 dereferenceable(72) ptr @_ZN6duckdb12FunctionData4CastINS_20UnionExtractBindDataEEERT_v(ptr noundef nonnull align 8 dereferenceable(8) %0) #0 comdat align 2 {
  %2 = alloca ptr, align 8
  store ptr %0, ptr %2, align 8, !tbaa !166
  %3 = load ptr, ptr %2, align 8
  call void @_ZN6duckdb16DynamicCastCheckINS_20UnionExtractBindDataENS_12FunctionDataEEEvPKT0_(ptr noundef %3)
  ret ptr %3
}

; Function Attrs: mustprogress uwtable
define internal void @_ZN6duckdbL20UnionExtractFunctionERNS_9DataChunkERNS_15ExpressionStateERNS_6VectorE(ptr noundef nonnull align 8 dereferenceable(64) %0, ptr noundef nonnull align 8 dereferenceable(176) %1, ptr noundef nonnull align 8 dereferenceable(104) %2) #0 {
  %4 = alloca ptr, align 8
  %5 = alloca ptr, align 8
  %6 = alloca ptr, align 8
  %7 = alloca ptr, align 8
  %8 = alloca ptr, align 8
  %9 = alloca ptr, align 8
  %10 = alloca ptr, align 8
  store ptr %0, ptr %4, align 8, !tbaa !15
  store ptr %1, ptr %5, align 8, !tbaa !17
  store ptr %2, ptr %6, align 8, !tbaa !19
  call void @llvm.lifetime.start.p0(i64 8, ptr %7) #7
  %11 = load ptr, ptr %5, align 8, !tbaa !17
  %12 = getelementptr inbounds nuw %"struct.duckdb::ExpressionState", ptr %11, i32 0, i32 1
  %13 = load ptr, ptr %12, align 8, !tbaa !21
  %14 = call noundef nonnull align 8 dereferenceable(417) ptr @_ZNK6duckdb14BaseExpression4CastINS_23BoundFunctionExpressionEEERKT_v(ptr noundef nonnull align 8 dereferenceable(56) %13)
  store ptr %14, ptr %7, align 8, !tbaa !57
  call void @llvm.lifetime.start.p0(i64 8, ptr %8) #7
  %15 = load ptr, ptr %7, align 8, !tbaa !57
  %16 = getelementptr inbounds nuw %"class.duckdb::BoundFunctionExpression", ptr %15, i32 0, i32 3
  %17 = call noundef ptr @_ZNK6duckdb10unique_ptrINS_12FunctionDataESt14default_deleteIS1_ELb1EEptEv(ptr noundef nonnull align 8 dereferenceable(8) %16)
  %18 = call noundef nonnull align 8 dereferenceable(72) ptr @_ZN6duckdb12FunctionData4CastINS_20UnionExtractBindDataEEERT_v(ptr noundef nonnull align 8 dereferenceable(8) %17)
  store ptr %18, ptr %8, align 8, !tbaa !59
  call void @llvm.lifetime.start.p0(i64 8, ptr %9) #7
  %19 = load ptr, ptr %4, align 8, !tbaa !15
  %20 = getelementptr inbounds nuw %"class.duckdb::DataChunk", ptr %19, i32 0, i32 0
  %21 = call noundef nonnull align 8 dereferenceable(104) ptr @_ZN6duckdb6vectorINS_6VectorELb1EEixEm(ptr noundef nonnull align 8 dereferenceable(24) %20, i64 noundef 0)
  store ptr %21, ptr %9, align 8, !tbaa !19
  %22 = load ptr, ptr %9, align 8, !tbaa !19
  %23 = load ptr, ptr %4, align 8, !tbaa !15
  %24 = call noundef i64 @_ZNK6duckdb9DataChunk4sizeEv(ptr noundef nonnull align 8 dereferenceable(64) %23)
  call void @_ZN6duckdb6Vector6VerifyEm(ptr noundef nonnull align 8 dereferenceable(104) %22, i64 noundef %24)
  call void @llvm.lifetime.start.p0(i64 8, ptr %10) #7
  %25 = load ptr, ptr %9, align 8, !tbaa !19
  %26 = load ptr, ptr %8, align 8, !tbaa !59
  %27 = getelementptr inbounds nuw %"struct.duckdb::UnionExtractBindData", ptr %26, i32 0, i32 2
  %28 = load i64, ptr %27, align 8, !tbaa !61
  %29 = call noundef nonnull align 8 dereferenceable(104) ptr @_ZN6duckdb11UnionVector9GetMemberERNS_6VectorEm(ptr noundef nonnull align 8 dereferenceable(104) %25, i64 noundef %28)
  store ptr %29, ptr %10, align 8, !tbaa !19
  %30 = load ptr, ptr %6, align 8, !tbaa !19
  %31 = load ptr, ptr %10, align 8, !tbaa !19
  call void @_ZN6duckdb6Vector9ReferenceERKS0_(ptr noundef nonnull align 8 dereferenceable(104) %30, ptr noundef nonnull align 8 dereferenceable(104) %31)
  %32 = load ptr, ptr %6, align 8, !tbaa !19
  %33 = load ptr, ptr %4, align 8, !tbaa !15
  %34 = call noundef i64 @_ZNK6duckdb9DataChunk4sizeEv(ptr noundef nonnull align 8 dereferenceable(64) %33)
  call void @_ZN6duckdb6Vector6VerifyEm(ptr noundef nonnull align 8 dereferenceable(104) %32, i64 noundef %34)
  call void @llvm.lifetime.end.p0(i64 8, ptr %10) #7
  call void @llvm.lifetime.end.p0(i64 8, ptr %9) #7
  call void @llvm.lifetime.end.p0(i64 8, ptr %8) #7
  call void @llvm.lifetime.end.p0(i64 8, ptr %7) #7
  ret void
}