; Function Attrs: mustprogress uwtable
define internal void @_ZN6duckdbL20UnionExtractFunctionERNS_9DataChunkERNS_15ExpressionStateERNS_6VectorE(ptr noundef nonnull align 8 dereferenceable(64) %0, ptr noundef nonnull readonly align 8 captures(none) dereferenceable(176) %1, ptr noundef nonnull align 8 dereferenceable(104) %2) #0 {
  %4 = getelementptr inbounds nuw i8, ptr %1, i64 8
  %5 = load ptr, ptr %4, align 8, !tbaa !19
  %6 = tail call noundef nonnull align 8 dereferenceable(417) ptr @_ZNK6duckdb14BaseExpression4CastINS_23BoundFunctionExpressionEEERKT_v(ptr noundef nonnull align 8 dereferenceable(56) %5)
  %7 = getelementptr inbounds nuw i8, ptr %6, i64 408
  %8 = tail call noundef ptr @_ZNK6duckdb10unique_ptrINS_12FunctionDataESt14default_deleteIS1_ELb1EEptEv(ptr noundef nonnull align 8 dereferenceable(8) %7)
  %9 = tail call noundef nonnull align 8 dereferenceable(104) ptr @_ZN6duckdb6vectorINS_6VectorELb1EEixEm(ptr noundef nonnull align 8 dereferenceable(24) %0, i64 noundef 0)
  %10 = getelementptr inbounds nuw i8, ptr %0, i64 24
  %11 = load i64, ptr %10, align 8, !tbaa !56
  tail call void @_ZN6duckdb6Vector6VerifyEm(ptr noundef nonnull align 8 dereferenceable(104) %9, i64 noundef %11)
  %12 = getelementptr inbounds nuw i8, ptr %8, i64 40
  %13 = load i64, ptr %12, align 8, !tbaa !57
  %14 = tail call noundef nonnull align 8 dereferenceable(104) ptr @_ZN6duckdb11UnionVector9GetMemberERNS_6VectorEm(ptr noundef nonnull align 8 dereferenceable(104) %9, i64 noundef %13)
  tail call void @_ZN6duckdb6Vector9ReferenceERKS0_(ptr noundef nonnull align 8 dereferenceable(104) %2, ptr noundef nonnull align 8 dereferenceable(104) %14)
  %15 = load i64, ptr %10, align 8, !tbaa !56
  tail call void @_ZN6duckdb6Vector6VerifyEm(ptr noundef nonnull align 8 dereferenceable(104) %2, i64 noundef %15)
  ret void
}